target datalayout = "e-m:e-p270:32:32-p271:32:32-p272:64:64-i64:64-i128:128-f80:128-n8:16:32:64-S128"
target triple = "x86_64-pc-linux-gnu"

%struct.Node = type { i32 }
%struct.A_Const = type { i32, %union.ValUnion, i8, i32 }
%union.ValUnion = type { %struct.Float }
%struct.Float = type { i32, ptr }

@.str.1 = private unnamed_addr constant [15 x i8] c"parse_clause.c\00", align 1
@.str.2 = private unnamed_addr constant [61 x i8] c"row count cannot be null in FETCH FIRST ... WITH TIES clause\00", align 1
@__func__.transformLimitClause = private unnamed_addr constant [21 x i8] c"transformLimitClause\00", align 1
@.str.60 = private unnamed_addr constant [42 x i8] c"argument of %s must not contain variables\00", align 1
@__func__.checkExprIsVarFree = private unnamed_addr constant [19 x i8] c"checkExprIsVarFree\00", align 1

; Function Attrs: nounwind uwtable
define internal void @checkExprIsVarFree(ptr noundef %0, ptr noundef %1, ptr noundef %2) #0 {
  %4 = alloca ptr, align 8
  %5 = alloca ptr, align 8
  %6 = alloca ptr, align 8
  store ptr %0, ptr %4, align 8
  store ptr %1, ptr %5, align 8
  store ptr %2, ptr %6, align 8
  %7 = load ptr, ptr %5, align 8
  %8 = call zeroext i1 @contain_vars_of_level(ptr noundef %7, i32 noundef 0)
  br i1 %8, label %9, label %25

9:                                                ; preds = %3
  br label %10

10:                                               ; preds = %9
  br i1 true, label %11, label %13

11:                                               ; preds = %10
  %12 = call zeroext i1 @errstart_cold(i32 noundef 21, ptr noundef null) #9
  br i1 %12, label %15, label %23

13:                                               ; preds = %10
  %14 = call zeroext i1 @errstart(i32 noundef 21, ptr noundef null)
  br i1 %14, label %15, label %23

15:                                               ; preds = %13, %11
  %16 = call i32 @errcode(i32 noundef 393348)
  %17 = load ptr, ptr %6, align 8
  %18 = call i32 (ptr, ...) @errmsg(ptr noundef @.str.60, ptr noundef %17)
  %19 = load ptr, ptr %4, align 8
  %20 = load ptr, ptr %5, align 8
  %21 = call i32 @locate_var_of_level(ptr noundef %20, i32 noundef 0)
  %22 = call i32 @parser_errposition(ptr noundef %19, i32 noundef %21)
  call void @errfinish(ptr noundef @.str.1, i32 noundef 1935, ptr noundef @__func__.checkExprIsVarFree)
  br label %23

23:                                               ; preds = %15, %13, %11
  unreachable

24:                                               ; No predecessors!
  br label %25

25:                                               ; preds = %24, %3
  ret void
}

; Function Attrs: nounwind uwtable
define dso_local ptr @transformLimitClause(ptr noundef %0, ptr noundef %1, i32 noundef %2, ptr noundef %3, i32 noundef %4) #0 {
  %6 = alloca ptr, align 8
  %7 = alloca ptr, align 8
  %8 = alloca ptr, align 8
  %9 = alloca i32, align 4
  %10 = alloca ptr, align 8
  %11 = alloca i32, align 4
  %12 = alloca ptr, align 8
  %13 = alloca i32, align 4
  store ptr %0, ptr %7, align 8
  store ptr %1, ptr %8, align 8
  store i32 %2, ptr %9, align 4
  store ptr %3, ptr %10, align 8
  store i32 %4, ptr %11, align 4
  call void @llvm.lifetime.start.p0(i64 8, ptr %12) #8
  %14 = load ptr, ptr %8, align 8
  %15 = icmp eq ptr %14, null
  br i1 %15, label %16, label %17

16:                                               ; preds = %5
  store ptr null, ptr %6, align 8
  store i32 1, ptr %13, align 4
  br label %58

17:                                               ; preds = %5
  %18 = load ptr, ptr %7, align 8
  %19 = load ptr, ptr %8, align 8
  %20 = load i32, ptr %9, align 4
  %21 = call ptr @transformExpr(ptr noundef %18, ptr noundef %19, i32 noundef %20)
  store ptr %21, ptr %12, align 8
  %22 = load ptr, ptr %7, align 8
  %23 = load ptr, ptr %12, align 8
  %24 = load ptr, ptr %10, align 8
  %25 = call ptr @coerce_to_specific_type(ptr noundef %22, ptr noundef %23, i32 noundef 20, ptr noundef %24)
  store ptr %25, ptr %12, align 8
  %26 = load ptr, ptr %7, align 8
  %27 = load ptr, ptr %12, align 8
  %28 = load ptr, ptr %10, align 8
  call void @checkExprIsVarFree(ptr noundef %26, ptr noundef %27, ptr noundef %28)
  %29 = load i32, ptr %9, align 4
  %30 = icmp eq i32 %29, 22
  br i1 %30, label %31, label %56

31:                                               ; preds = %17
  %32 = load i32, ptr %11, align 4
  %33 = icmp eq i32 %32, 1
  br i1 %33, label %34, label %56

34:                                               ; preds = %31
  %35 = load ptr, ptr %8, align 8
  %36 = getelementptr inbounds nuw %struct.Node, ptr %35, i32 0, i32 0
  %37 = load i32, ptr %36, align 4
  %38 = icmp eq i32 %37, 72
  br i1 %38, label %39, label %56

39:                                               ; preds = %34
  %40 = load ptr, ptr %8, align 8
  %41 = getelementptr inbounds nuw %struct.A_Const, ptr %40, i32 0, i32 2
  %42 = load i8, ptr %41, align 8, !range !6, !noundef !7
  %43 = trunc i8 %42 to i1
  br i1 %43, label %44, label %56

44:                                               ; preds = %39
  br label %45

45:                                               ; preds = %44
  br i1 true, label %46, label %48

46:                                               ; preds = %45
  %47 = call zeroext i1 @errstart_cold(i32 noundef 21, ptr noundef null) #9
  br i1 %47, label %50, label %53

48:                                               ; preds = %45
  %49 = call zeroext i1 @errstart(i32 noundef 21, ptr noundef null)
  br i1 %49, label %50, label %53

50:                                               ; preds = %48, %46
  %51 = call i32 @errcode(i32 noundef 654573698)
  %52 = call i32 (ptr, ...) @errmsg(ptr noundef @.str.2)
  call void @errfinish(ptr noundef @.str.1, i32 noundef 1907, ptr noundef @__func__.transformLimitClause)
  br label %53

53:                                               ; preds = %50, %48, %46
  unreachable

54:                                               ; No predecessors!
  br label %55

55:                                               ; preds = %54
  br label %56

56:                                               ; preds = %55, %39, %34, %31, %17
  %57 = load ptr, ptr %12, align 8
  store ptr %57, ptr %6, align 8
  store i32 1, ptr %13, align 4
  br label %58

58:                                               ; preds = %56, %16
  call void @llvm.lifetime.end.p0(i64 8, ptr %12) #8
  %59 = load ptr, ptr %6, align 8
  ret ptr %59
}