; Function Attrs: nounwind uwtable
define dso_local noundef ptr @transformLimitClause(ptr noundef %0, ptr noundef %1, i32 noundef %2, ptr noundef %3, i32 noundef %4) local_unnamed_addr #0 {
  %6 = icmp eq ptr %1, null
  br i1 %6, label %30, label %7

7:                                                ; preds = %5
  %8 = tail call ptr @transformExpr(ptr noundef %0, ptr noundef nonnull %1, i32 noundef %2) #9
  %9 = tail call ptr @coerce_to_specific_type(ptr noundef %0, ptr noundef %8, i32 noundef 20, ptr noundef %3) #9
  %10 = tail call zeroext i1 @contain_vars_of_level(ptr noundef %9, i32 noundef 0) #9
  br i1 %10, label %11, label %checkExprIsVarFree.exit

11:                                               ; preds = %7
  %12 = tail call zeroext i1 @errstart_cold(i32 noundef 21, ptr noundef null) #10
  tail call void @llvm.assume(i1 %12)
  %13 = tail call i32 @errcode(i32 noundef 393348) #9
  %14 = tail call i32 (ptr, ...) @errmsg(ptr noundef nonnull @.str.60, ptr noundef %3) #9
  %15 = tail call i32 @locate_var_of_level(ptr noundef %9, i32 noundef 0) #9
  %16 = tail call i32 @parser_errposition(ptr noundef %0, i32 noundef %15) #9
  tail call void @errfinish(ptr noundef nonnull @.str.1, i32 noundef 1935, ptr noundef nonnull @__func__.checkExprIsVarFree) #9
  unreachable

checkExprIsVarFree.exit:                          ; preds = %7
  %17 = icmp eq i32 %2, 22
  %18 = icmp eq i32 %4, 1
  %or.cond = and i1 %17, %18
  br i1 %or.cond, label %19, label %30

19:                                               ; preds = %checkExprIsVarFree.exit
  %20 = load i32, ptr %1, align 4
  %21 = icmp eq i32 %20, 72
  br i1 %21, label %22, label %30

22:                                               ; preds = %19
  %23 = getelementptr inbounds nuw i8, ptr %1, i64 24
  %24 = load i8, ptr %23, align 8, !range !4, !noundef !5
  %25 = trunc nuw i8 %24 to i1
  br i1 %25, label %26, label %30

26:                                               ; preds = %22
  %27 = tail call zeroext i1 @errstart_cold(i32 noundef 21, ptr noundef null) #10
  tail call void @llvm.assume(i1 %27)
  %28 = tail call i32 @errcode(i32 noundef 654573698) #9
  %29 = tail call i32 (ptr, ...) @errmsg(ptr noundef nonnull @.str.2) #9
  tail call void @errfinish(ptr noundef nonnull @.str.1, i32 noundef 1907, ptr noundef nonnull @__func__.transformLimitClause) #9
  unreachable

30:                                               ; preds = %checkExprIsVarFree.exit, %19, %22, %5
  %.0 = phi ptr [ null, %5 ], [ %9, %22 ], [ %9, %19 ], [ %9, %checkExprIsVarFree.exit ]
  ret ptr %.0
}